target datalayout = "e-m:e-p270:32:32-p271:32:32-p272:64:64-i64:64-i128:128-f80:128-n8:16:32:64-S128"
target triple = "x86_64-pc-linux-gnu"

@hf_netb_datagram_bcast_mac = internal global i32 0, align 4
@.str.185 = private unnamed_addr constant [14 x i8] c"Sender's Name\00", align 1
@zeroes = internal constant [10 x i8] zeroinitializer, align 1

; Function Attrs: nounwind uwtable
define internal i32 @dissect_netb_datagram_bcast(ptr noundef %0, ptr noundef %1, i32 noundef %2, ptr noundef %3) #0 {
  %5 = alloca ptr, align 8
  %6 = alloca ptr, align 8
  %7 = alloca i32, align 4
  %8 = alloca ptr, align 8
  store ptr %0, ptr %5, align 8
  store ptr %1, ptr %6, align 8
  store i32 %2, ptr %7, align 4
  store ptr %3, ptr %8, align 8
  %9 = load ptr, ptr %5, align 8
  %10 = load i32, ptr %7, align 4
  %11 = add i32 %10, 28
  %12 = call i32 @tvb_memeql(ptr noundef %9, i32 noundef %11, ptr noundef @zeroes, i64 noundef 10)
  %13 = icmp eq i32 %12, 0
  br i1 %13, label %14, label %22

14:                                               ; preds = %4
  %15 = load ptr, ptr %8, align 8
  %16 = load i32, ptr @hf_netb_datagram_bcast_mac, align 4
  %17 = load ptr, ptr %5, align 8
  %18 = load i32, ptr %7, align 4
  %19 = add i32 %18, 28
  %20 = add i32 %19, 10
  %21 = call ptr @proto_tree_add_item(ptr noundef %15, i32 noundef %16, ptr noundef %17, i32 noundef %20, i32 noundef 6, i32 noundef 0)
  br label %27

22:                                               ; preds = %4
  %23 = load ptr, ptr %5, align 8
  %24 = load i32, ptr %7, align 4
  %25 = add i32 %24, 28
  %26 = load ptr, ptr %8, align 8
  call void @netbios_add_name(ptr noundef @.str.185, ptr noundef %23, i32 noundef %25, ptr noundef %26)
  br label %27

27:                                               ; preds = %22, %14
  ret i32 0
}