; Function Attrs: nounwind uwtable
define internal noundef i32 @dissect_netb_datagram_bcast(ptr noundef %0, ptr readnone captures(none) %1, i32 noundef %2, ptr noundef %3) #1 {
  %5 = add i32 %2, 28
  %6 = tail call i32 @tvb_memeql(ptr noundef %0, i32 noundef %5, ptr noundef nonnull @zeroes, i64 noundef 10) #6
  %7 = icmp eq i32 %6, 0
  br i1 %7, label %8, label %12

8:                                                ; preds = %4
  %9 = load i32, ptr @hf_netb_datagram_bcast_mac, align 4
  %10 = add i32 %2, 38
  %11 = tail call ptr @proto_tree_add_item(ptr noundef %3, i32 noundef %9, ptr noundef %0, i32 noundef %10, i32 noundef 6, i32 noundef 0) #6
  br label %13

12:                                               ; preds = %4
  tail call void @netbios_add_name(ptr noundef nonnull @.str.185, ptr noundef %0, i32 noundef %5, ptr noundef %3)
  br label %13

13:                                               ; preds = %12, %8
  ret i32 0
}